; ModuleID = '57/1988.c'
source_filename = "57/1988.c"
target datalayout = "e-m:e-p270:32:32-p271:32:32-p272:64:64-i64:64-f80:128-n8:16:32:64-S128"
target triple = "x86_64-pc-linux-gnu"

@.str = private unnamed_addr constant [4 x i8] c"%d\0A\00", align 1
@.str.1 = private unnamed_addr constant [4 x i8] c"%s\0A\00", align 1
@.str.2 = private unnamed_addr constant [2 x i8] c"r\00", align 1
@.str.3 = private unnamed_addr constant [2 x i8] c"y\00", align 1
@.str.4 = private unnamed_addr constant [2 x i8] c"g\00", align 1
@.str.5 = private unnamed_addr constant [2 x i8] c"\0A\00", align 1

; Function Attrs: noinline nounwind uwtable
define dso_local i32 @main() #0 {
  %1 = alloca i32, align 4
  %2 = alloca i32, align 4
  %3 = alloca i32, align 4
  %4 = alloca [15 x i8], align 1
  %5 = alloca i8*, align 8
  %6 = alloca i32, align 4
  store i32 0, i32* %1, align 4
  %7 = call i32 (i8*, ...) @__isoc99_scanf(i8* getelementptr inbounds ([4 x i8], [4 x i8]* @.str, i64 0, i64 0), i32* %2)
  store i32 0, i32* %3, align 4
  br label %8

8:                                                ; preds = %49, %0
  %9 = load i32, i32* %3, align 4
  %10 = load i32, i32* %2, align 4
  %11 = icmp slt i32 %9, %10
  br i1 %11, label %12, label %52

12:                                               ; preds = %8
  %13 = getelementptr inbounds [15 x i8], [15 x i8]* %4, i64 0, i64 0
  store i8* %13, i8** %5, align 8
  %14 = load i8*, i8** %5, align 8
  %15 = call i32 (i8*, ...) @__isoc99_scanf(i8* getelementptr inbounds ([4 x i8], [4 x i8]* @.str.1, i64 0, i64 0), i8* %14)
  %16 = getelementptr inbounds [15 x i8], [15 x i8]* %4, i64 0, i64 0
  %17 = call i64 @strlen(i8* %16) #3
  %18 = trunc i64 %17 to i32
  store i32 %18, i32* %6, align 4
  %19 = load i32, i32* %6, align 4
  %20 = sub nsw i32 %19, 1
  %21 = sext i32 %20 to i64
  %22 = getelementptr inbounds [15 x i8], [15 x i8]* %4, i64 0, i64 %21
  store i8* %22, i8** %5, align 8
  %23 = load i8*, i8** %5, align 8
  %24 = call i32 @strcmp(i8* %23, i8* getelementptr inbounds ([2 x i8], [2 x i8]* @.str.2, i64 0, i64 0)) #3
  %25 = icmp eq i32 %24, 0
  br i1 %25, label %30, label %26

26:                                               ; preds = %12
  %27 = load i8*, i8** %5, align 8
  %28 = call i32 @strcmp(i8* %27, i8* getelementptr inbounds ([2 x i8], [2 x i8]* @.str.3, i64 0, i64 0)) #3
  %29 = icmp eq i32 %28, 0
  br i1 %29, label %30, label %35

30:                                               ; preds = %26, %12
  %31 = load i32, i32* %6, align 4
  %32 = sub nsw i32 %31, 2
  %33 = sext i32 %32 to i64
  %34 = getelementptr inbounds [15 x i8], [15 x i8]* %4, i64 0, i64 %33
  store i8 0, i8* %34, align 1
  br label %35

35:                                               ; preds = %30, %26
  %36 = load i8*, i8** %5, align 8
  %37 = call i32 @strcmp(i8* %36, i8* getelementptr inbounds ([2 x i8], [2 x i8]* @.str.4, i64 0, i64 0)) #3
  %38 = icmp eq i32 %37, 0
  br i1 %38, label %39, label %44

39:                                               ; preds = %35
  %40 = load i32, i32* %6, align 4
  %41 = sub nsw i32 %40, 3
  %42 = sext i32 %41 to i64
  %43 = getelementptr inbounds [15 x i8], [15 x i8]* %4, i64 0, i64 %42
  store i8 0, i8* %43, align 1
  br label %44

44:                                               ; preds = %39, %35
  %45 = getelementptr inbounds [15 x i8], [15 x i8]* %4, i64 0, i64 0
  store i8* %45, i8** %5, align 8
  %46 = load i8*, i8** %5, align 8
  %47 = call i32 (i8*, ...) @printf(i8* %46)
  %48 = call i32 (i8*, ...) @printf(i8* getelementptr inbounds ([2 x i8], [2 x i8]* @.str.5, i64 0, i64 0))
  br label %49

49:                                               ; preds = %44
  %50 = load i32, i32* %3, align 4
  %51 = add nsw i32 %50, 1
  store i32 %51, i32* %3, align 4
  br label %8

52:                                               ; preds = %8
  ret i32 0
}

declare dso_local i32 @__isoc99_scanf(i8*, ...) #1

; Function Attrs: nounwind readonly
declare dso_local i64 @strlen(i8*) #2

; Function Attrs: nounwind readonly
declare dso_local i32 @strcmp(i8*, i8*) #2

declare dso_local i32 @printf(i8*, ...) #1


!llvm.module.flags = !{!0}
!llvm.ident = !{!1}

!0 = !{i32 1, !"wchar_size", i32 4}
!1 = !{!"clang version 10.0.0-4ubuntu1 "}
