; ModuleID = 'source-C-CXX/56/1988.c'
source_filename = "source-C-CXX/56/1988.c"
target datalayout = "e-m:e-p270:32:32-p271:32:32-p272:64:64-i64:64-f80:128-n8:16:32:64-S128"
target triple = "x86_64-pc-linux-gnu"

@.str = private unnamed_addr constant [4 x i8] c"%d\0A\00", align 1
@.str.1 = private unnamed_addr constant [4 x i8] c"%s\0A\00", align 1
@.str.2 = private unnamed_addr constant [2 x i8] c"r\00", align 1
@.str.3 = private unnamed_addr constant [2 x i8] c"y\00", align 1
@.str.4 = private unnamed_addr constant [2 x i8] c"g\00", align 1

; Function Attrs: nofree nounwind sspstrong uwtable
define dso_local i32 @main() local_unnamed_addr #0 {
  %1 = alloca i32, align 4
  %2 = alloca [15 x i8], align 1
  %3 = bitcast i32* %1 to i8*
  call void @llvm.lifetime.start.p0i8(i64 4, i8* nonnull %3) #5
  %4 = call i32 (i8*, ...) @__isoc99_scanf(i8* getelementptr inbounds ([4 x i8], [4 x i8]* @.str, i64 0, i64 0), i32* nonnull %1)
  %5 = getelementptr inbounds [15 x i8], [15 x i8]* %2, i64 0, i64 0
  %6 = load i32, i32* %1, align 4, !tbaa !5
  %7 = icmp sgt i32 %6, 0
  br i1 %7, label %8, label %38

8:                                                ; preds = %0, %32
  %9 = phi i32 [ %35, %32 ], [ 0, %0 ]
  call void @llvm.lifetime.start.p0i8(i64 15, i8* nonnull %5) #5
  %10 = call i32 (i8*, ...) @__isoc99_scanf(i8* getelementptr inbounds ([4 x i8], [4 x i8]* @.str.1, i64 0, i64 0), i8* nonnull %5)
  %11 = call i64 @strlen(i8* noundef nonnull %5) #6
  %12 = shl i64 %11, 32
  %13 = add i64 %12, -4294967296
  %14 = ashr exact i64 %13, 32
  %15 = getelementptr inbounds [15 x i8], [15 x i8]* %2, i64 0, i64 %14
  %16 = call i32 @strcmp(i8* noundef nonnull %15, i8* noundef nonnull dereferenceable(2) getelementptr inbounds ([2 x i8], [2 x i8]* @.str.2, i64 0, i64 0)) #6
  %17 = icmp eq i32 %16, 0
  br i1 %17, label %21, label %18

18:                                               ; preds = %8
  %19 = call i32 @strcmp(i8* noundef nonnull %15, i8* noundef nonnull dereferenceable(2) getelementptr inbounds ([2 x i8], [2 x i8]* @.str.3, i64 0, i64 0)) #6
  %20 = icmp eq i32 %19, 0
  br i1 %20, label %21, label %25

21:                                               ; preds = %18, %8
  %22 = add i64 %12, -8589934592
  %23 = ashr exact i64 %22, 32
  %24 = getelementptr inbounds [15 x i8], [15 x i8]* %2, i64 0, i64 %23
  store i8 0, i8* %24, align 1, !tbaa !9
  br label %25

25:                                               ; preds = %21, %18
  %26 = call i32 @strcmp(i8* noundef nonnull %15, i8* noundef nonnull dereferenceable(2) getelementptr inbounds ([2 x i8], [2 x i8]* @.str.4, i64 0, i64 0)) #6
  %27 = icmp eq i32 %26, 0
  br i1 %27, label %28, label %32

28:                                               ; preds = %25
  %29 = add i64 %12, -12884901888
  %30 = ashr exact i64 %29, 32
  %31 = getelementptr inbounds [15 x i8], [15 x i8]* %2, i64 0, i64 %30
  store i8 0, i8* %31, align 1, !tbaa !9
  br label %32

32:                                               ; preds = %28, %25
  %33 = call i32 (i8*, ...) @printf(i8* nonnull %5)
  %34 = call i32 @putchar(i32 10)
  call void @llvm.lifetime.end.p0i8(i64 15, i8* nonnull %5) #5
  %35 = add nuw nsw i32 %9, 1
  %36 = load i32, i32* %1, align 4, !tbaa !5
  %37 = icmp slt i32 %35, %36
  br i1 %37, label %8, label %38, !llvm.loop !10

38:                                               ; preds = %32, %0
  call void @llvm.lifetime.end.p0i8(i64 4, i8* nonnull %3) #5
  ret i32 0
}

; Function Attrs: argmemonly mustprogress nofree nosync nounwind willreturn
declare void @llvm.lifetime.start.p0i8(i64 immarg, i8* nocapture) #1

; Function Attrs: nofree nounwind
declare noundef i32 @__isoc99_scanf(i8* nocapture noundef readonly, ...) local_unnamed_addr #2

; Function Attrs: argmemonly mustprogress nofree nounwind readonly willreturn
declare i64 @strlen(i8* nocapture) local_unnamed_addr #3

; Function Attrs: argmemonly mustprogress nofree nounwind readonly willreturn
declare i32 @strcmp(i8* nocapture, i8* nocapture) local_unnamed_addr #3

; Function Attrs: nofree nounwind
declare noundef i32 @printf(i8* nocapture noundef readonly, ...) local_unnamed_addr #2

; Function Attrs: argmemonly mustprogress nofree nosync nounwind willreturn
declare void @llvm.lifetime.end.p0i8(i64 immarg, i8* nocapture) #1

; Function Attrs: nofree nounwind
declare noundef i32 @putchar(i32 noundef) local_unnamed_addr #4


!llvm.module.flags = !{!0, !1, !2, !3}
!llvm.ident = !{!4}

!0 = !{i32 1, !"wchar_size", i32 4}
!1 = !{i32 7, !"PIC Level", i32 2}
!2 = !{i32 7, !"PIE Level", i32 2}
!3 = !{i32 7, !"uwtable", i32 1}
!4 = !{!"clang version 13.0.0"}
!5 = !{!6, !6, i64 0}
!6 = !{!"int", !7, i64 0}
!7 = !{!"omnipotent char", !8, i64 0}
!8 = !{!"Simple C/C++ TBAA"}
!9 = !{!7, !7, i64 0}
!10 = distinct !{!10, !11}
!11 = !{!"llvm.loop.mustprogress"}
